target datalayout = "e-m:e-p270:32:32-p271:32:32-p272:64:64-i64:64-i128:128-f80:128-n8:16:32:64-S128"
target triple = "x86_64-pc-linux-gnu"

%"class.llvm::Value" = type { i8, i8, i16, i32, ptr, ptr }
%"class.llvm::Value::user_iterator_impl" = type { %"class.llvm::Value::use_iterator_impl.19" }
%"class.llvm::Value::use_iterator_impl.19" = type { ptr }
%"class.llvm::Use" = type { ptr, ptr, ptr, ptr }

; Function Attrs: mustprogress nounwind uwtable
define linkonce_odr hidden noundef ptr @_ZNK4llvm3Use7getNextEv(ptr noundef nonnull align 8 dereferenceable(32) %0) #1 comdat align 2 {
  %2 = alloca ptr, align 8
  store ptr %0, ptr %2, align 8
  %3 = load ptr, ptr %2, align 8
  %4 = getelementptr inbounds nuw %"class.llvm::Use", ptr %3, i32 0, i32 1
  %5 = load ptr, ptr %4, align 8
  ret ptr %5
}

; Function Attrs: mustprogress nounwind uwtable
define linkonce_odr hidden noundef nonnull align 8 dereferenceable(32) ptr @_ZNK4llvm5Value17use_iterator_implINS_3UseEEdeEv(ptr noundef nonnull align 8 dereferenceable(8) %0) #1 comdat align 2 {
  %2 = alloca ptr, align 8
  store ptr %0, ptr %2, align 8
  %3 = load ptr, ptr %2, align 8
  %4 = getelementptr inbounds nuw %"class.llvm::Value::use_iterator_impl.19", ptr %3, i32 0, i32 0
  %5 = load ptr, ptr %4, align 8
  ret ptr %5
}

; Function Attrs: mustprogress nounwind uwtable
define linkonce_odr hidden void @_ZN4llvm5Value17use_iterator_implINS_3UseEEC2EPS2_(ptr noundef nonnull align 8 dereferenceable(8) %0, ptr noundef %1) unnamed_addr #1 comdat align 2 {
  %3 = alloca ptr, align 8
  %4 = alloca ptr, align 8
  store ptr %0, ptr %3, align 8
  store ptr %1, ptr %4, align 8
  %5 = load ptr, ptr %3, align 8
  %6 = getelementptr inbounds nuw %"class.llvm::Value::use_iterator_impl.19", ptr %5, i32 0, i32 0
  %7 = load ptr, ptr %4, align 8
  store ptr %7, ptr %6, align 8
  ret void
}

; Function Attrs: mustprogress nounwind uwtable
define linkonce_odr hidden noundef nonnull align 8 dereferenceable(8) ptr @_ZN4llvm5Value17use_iterator_implINS_3UseEEppEv(ptr noundef nonnull align 8 dereferenceable(8) %0) #1 comdat align 2 {
  %2 = alloca ptr, align 8
  store ptr %0, ptr %2, align 8
  %3 = load ptr, ptr %2, align 8
  %4 = getelementptr inbounds nuw %"class.llvm::Value::use_iterator_impl.19", ptr %3, i32 0, i32 0
  %5 = load ptr, ptr %4, align 8
  %6 = call noundef ptr @_ZNK4llvm3Use7getNextEv(ptr noundef nonnull align 8 dereferenceable(32) %5)
  %7 = getelementptr inbounds nuw %"class.llvm::Value::use_iterator_impl.19", ptr %3, i32 0, i32 0
  store ptr %6, ptr %7, align 8
  ret ptr %3
}

; Function Attrs: mustprogress nounwind uwtable
define linkonce_odr hidden noundef ptr @_ZNK4llvm3Use7getUserEv(ptr noundef nonnull align 8 dereferenceable(32) %0) #1 comdat align 2 {
  %2 = alloca ptr, align 8
  store ptr %0, ptr %2, align 8
  %3 = load ptr, ptr %2, align 8
  %4 = getelementptr inbounds nuw %"class.llvm::Use", ptr %3, i32 0, i32 3
  %5 = load ptr, ptr %4, align 8
  ret ptr %5
}

; Function Attrs: mustprogress nounwind uwtable
define linkonce_odr hidden noundef ptr @_ZNK4llvm5Value17use_iterator_implINS_3UseEEptEv(ptr noundef nonnull align 8 dereferenceable(8) %0) #1 comdat align 2 {
  %2 = alloca ptr, align 8
  store ptr %0, ptr %2, align 8
  %3 = load ptr, ptr %2, align 8
  %4 = call noundef nonnull align 8 dereferenceable(32) ptr @_ZNK4llvm5Value17use_iterator_implINS_3UseEEdeEv(ptr noundef nonnull align 8 dereferenceable(8) %3)
  ret ptr %4
}

; Function Attrs: mustprogress nounwind uwtable
define linkonce_odr hidden noundef zeroext i1 @_ZNK4llvm5Value17use_iterator_implINS_3UseEEeqERKS3_(ptr noundef nonnull align 8 dereferenceable(8) %0, ptr noundef nonnull align 8 dereferenceable(8) %1) #1 comdat align 2 {
  %3 = alloca ptr, align 8
  %4 = alloca ptr, align 8
  store ptr %0, ptr %3, align 8
  store ptr %1, ptr %4, align 8
  %5 = load ptr, ptr %3, align 8
  %6 = getelementptr inbounds nuw %"class.llvm::Value::use_iterator_impl.19", ptr %5, i32 0, i32 0
  %7 = load ptr, ptr %6, align 8
  %8 = load ptr, ptr %4, align 8
  %9 = getelementptr inbounds nuw %"class.llvm::Value::use_iterator_impl.19", ptr %8, i32 0, i32 0
  %10 = load ptr, ptr %9, align 8
  %11 = icmp eq ptr %7, %10
  ret i1 %11
}

; Function Attrs: mustprogress nounwind uwtable
define linkonce_odr hidden void @_ZN4llvm5Value17use_iterator_implINS_3UseEEC2Ev(ptr noundef nonnull align 8 dereferenceable(8) %0) unnamed_addr #1 comdat align 2 {
  %2 = alloca ptr, align 8
  store ptr %0, ptr %2, align 8
  %3 = load ptr, ptr %2, align 8
  %4 = getelementptr inbounds nuw %"class.llvm::Value::use_iterator_impl.19", ptr %3, i32 0, i32 0
  store ptr null, ptr %4, align 8
  ret void
}

; Function Attrs: mustprogress nounwind uwtable
define linkonce_odr hidden void @_ZN4llvm5Value18user_iterator_implIKNS_4UserEEC2EPNS_3UseE(ptr noundef nonnull align 8 dereferenceable(8) %0, ptr noundef %1) unnamed_addr #1 comdat align 2 {
  %3 = alloca ptr, align 8
  %4 = alloca ptr, align 8
  store ptr %0, ptr %3, align 8
  store ptr %1, ptr %4, align 8
  %5 = load ptr, ptr %3, align 8
  %6 = getelementptr inbounds nuw %"class.llvm::Value::user_iterator_impl", ptr %5, i32 0, i32 0
  %7 = load ptr, ptr %4, align 8
  call void @_ZN4llvm5Value17use_iterator_implINS_3UseEEC2EPS2_(ptr noundef nonnull align 8 dereferenceable(8) %6, ptr noundef %7)
  ret void
}

; Function Attrs: mustprogress nounwind uwtable
define linkonce_odr hidden noundef nonnull align 8 dereferenceable(8) ptr @_ZN4llvm5Value18user_iterator_implIKNS_4UserEEppEv(ptr noundef nonnull align 8 dereferenceable(8) %0) #1 comdat align 2 {
  %2 = alloca ptr, align 8
  store ptr %0, ptr %2, align 8
  %3 = load ptr, ptr %2, align 8
  %4 = getelementptr inbounds nuw %"class.llvm::Value::user_iterator_impl", ptr %3, i32 0, i32 0
  %5 = call noundef nonnull align 8 dereferenceable(8) ptr @_ZN4llvm5Value17use_iterator_implINS_3UseEEppEv(ptr noundef nonnull align 8 dereferenceable(8) %4)
  ret ptr %3
}

; Function Attrs: mustprogress nounwind uwtable
define linkonce_odr hidden noundef ptr @_ZNK4llvm5Value18user_iterator_implIKNS_4UserEEdeEv(ptr noundef nonnull align 8 dereferenceable(8) %0) #1 comdat align 2 {
  %2 = alloca ptr, align 8
  store ptr %0, ptr %2, align 8
  %3 = load ptr, ptr %2, align 8
  %4 = getelementptr inbounds nuw %"class.llvm::Value::user_iterator_impl", ptr %3, i32 0, i32 0
  %5 = call noundef ptr @_ZNK4llvm5Value17use_iterator_implINS_3UseEEptEv(ptr noundef nonnull align 8 dereferenceable(8) %4)
  %6 = call noundef ptr @_ZNK4llvm3Use7getUserEv(ptr noundef nonnull align 8 dereferenceable(32) %5)
  ret ptr %6
}

; Function Attrs: mustprogress nounwind uwtable
define linkonce_odr hidden noundef zeroext i1 @_ZNK4llvm5Value18user_iterator_implIKNS_4UserEEeqERKS4_(ptr noundef nonnull align 8 dereferenceable(8) %0, ptr noundef nonnull align 8 dereferenceable(8) %1) #1 comdat align 2 {
  %3 = alloca ptr, align 8
  %4 = alloca ptr, align 8
  store ptr %0, ptr %3, align 8
  store ptr %1, ptr %4, align 8
  %5 = load ptr, ptr %3, align 8
  %6 = getelementptr inbounds nuw %"class.llvm::Value::user_iterator_impl", ptr %5, i32 0, i32 0
  %7 = load ptr, ptr %4, align 8
  %8 = getelementptr inbounds nuw %"class.llvm::Value::user_iterator_impl", ptr %7, i32 0, i32 0
  %9 = call noundef zeroext i1 @_ZNK4llvm5Value17use_iterator_implINS_3UseEEeqERKS3_(ptr noundef nonnull align 8 dereferenceable(8) %6, ptr noundef nonnull align 8 dereferenceable(8) %8)
  ret i1 %9
}

; Function Attrs: mustprogress nounwind uwtable
define linkonce_odr hidden void @_ZN4llvm5Value18user_iterator_implIKNS_4UserEEC2Ev(ptr noundef nonnull align 8 dereferenceable(8) %0) unnamed_addr #1 comdat align 2 {
  %2 = alloca ptr, align 8
  store ptr %0, ptr %2, align 8
  %3 = load ptr, ptr %2, align 8
  %4 = getelementptr inbounds nuw %"class.llvm::Value::user_iterator_impl", ptr %3, i32 0, i32 0
  call void @_ZN4llvm5Value17use_iterator_implINS_3UseEEC2Ev(ptr noundef nonnull align 8 dereferenceable(8) %4)
  ret void
}

; Function Attrs: mustprogress nounwind uwtable
define linkonce_odr hidden ptr @_ZNK4llvm5Value23materialized_user_beginEv(ptr noundef nonnull align 8 dereferenceable(24) %0) #1 comdat align 2 {
  %2 = alloca %"class.llvm::Value::user_iterator_impl", align 8
  %3 = alloca ptr, align 8
  store ptr %0, ptr %3, align 8
  %4 = load ptr, ptr %3, align 8
  %5 = getelementptr inbounds nuw %"class.llvm::Value", ptr %4, i32 0, i32 5
  %6 = load ptr, ptr %5, align 8
  call void @_ZN4llvm5Value18user_iterator_implIKNS_4UserEEC2EPNS_3UseE(ptr noundef nonnull align 8 dereferenceable(8) %2, ptr noundef %6)
  %7 = getelementptr inbounds nuw %"class.llvm::Value::user_iterator_impl", ptr %2, i32 0, i32 0
  %8 = getelementptr inbounds nuw %"class.llvm::Value::use_iterator_impl.19", ptr %7, i32 0, i32 0
  %9 = load ptr, ptr %8, align 8
  ret ptr %9
}

; Function Attrs: mustprogress nounwind uwtable
define linkonce_odr hidden void @_ZNK4llvm5Value26assertModuleIsMaterializedEv(ptr noundef nonnull align 8 dereferenceable(24) %0) #1 comdat align 2 {
  %2 = alloca ptr, align 8
  store ptr %0, ptr %2, align 8
  ret void
}

; Function Attrs: mustprogress nounwind uwtable
define linkonce_odr noundef zeroext i1 @_ZN4llvm15hasNItemsOrMoreINS_5Value18user_iterator_implIKNS_4UserEEERFbPS4_EEEbOT_SA_jOT0_PNSt9enable_ifIXntsr3std10is_base_ofISt26random_access_iterator_tagNSt15iterator_traitsINSt16remove_referenceIDtfL0p_EE4typeEE17iterator_categoryEEE5valueEvE4typeE(ptr noundef nonnull align 8 dereferenceable(8) %0, ptr noundef nonnull align 8 dereferenceable(8) %1, i32 noundef %2, ptr noundef nonnull %3, ptr noundef %4) #1 comdat {
  %6 = alloca i1, align 1
  %7 = alloca ptr, align 8
  %8 = alloca ptr, align 8
  %9 = alloca i32, align 4
  %10 = alloca ptr, align 8
  %11 = alloca ptr, align 8
  store ptr %0, ptr %7, align 8
  store ptr %1, ptr %8, align 8
  store i32 %2, ptr %9, align 4
  store ptr %3, ptr %10, align 8
  store ptr %4, ptr %11, align 8
  br label %12

12:                                               ; preds = %28, %5
  %13 = load i32, ptr %9, align 4
  %14 = icmp ne i32 %13, 0
  br i1 %14, label %15, label %31

15:                                               ; preds = %12
  %16 = load ptr, ptr %7, align 8
  %17 = load ptr, ptr %8, align 8
  %18 = call noundef zeroext i1 @_ZNK4llvm5Value18user_iterator_implIKNS_4UserEEeqERKS4_(ptr noundef nonnull align 8 dereferenceable(8) %16, ptr noundef nonnull align 8 dereferenceable(8) %17)
  br i1 %18, label %19, label %20

19:                                               ; preds = %15
  store i1 false, ptr %6, align 1
  br label %32

20:                                               ; preds = %15
  %21 = load ptr, ptr %10, align 8
  %22 = load ptr, ptr %7, align 8
  %23 = call noundef ptr @_ZNK4llvm5Value18user_iterator_implIKNS_4UserEEdeEv(ptr noundef nonnull align 8 dereferenceable(8) %22)
  %24 = call noundef zeroext i1 %21(ptr noundef %23)
  %25 = zext i1 %24 to i32
  %26 = load i32, ptr %9, align 4
  %27 = sub i32 %26, %25
  store i32 %27, ptr %9, align 4
  br label %28

28:                                               ; preds = %20
  %29 = load ptr, ptr %7, align 8
  %30 = call noundef nonnull align 8 dereferenceable(8) ptr @_ZN4llvm5Value18user_iterator_implIKNS_4UserEEppEv(ptr noundef nonnull align 8 dereferenceable(8) %29)
  br label %12, !llvm.loop !11

31:                                               ; preds = %12
  store i1 true, ptr %6, align 1
  br label %32

32:                                               ; preds = %31, %19
  %33 = load i1, ptr %6, align 1
  ret i1 %33
}

; Function Attrs: mustprogress nounwind uwtable
define linkonce_odr hidden ptr @_ZNK4llvm5Value8user_endEv(ptr noundef nonnull align 8 dereferenceable(24) %0) #1 comdat align 2 {
  %2 = alloca %"class.llvm::Value::user_iterator_impl", align 8
  %3 = alloca ptr, align 8
  store ptr %0, ptr %3, align 8
  call void @llvm.memset.p0.i64(ptr align 8 %2, i8 0, i64 8, i1 false)
  call void @_ZN4llvm5Value18user_iterator_implIKNS_4UserEEC2Ev(ptr noundef nonnull align 8 dereferenceable(8) %2)
  %4 = getelementptr inbounds nuw %"class.llvm::Value::user_iterator_impl", ptr %2, i32 0, i32 0
  %5 = getelementptr inbounds nuw %"class.llvm::Value::use_iterator_impl.19", ptr %4, i32 0, i32 0
  %6 = load ptr, ptr %5, align 8
  ret ptr %6
}

; Function Attrs: mustprogress nounwind uwtable
define linkonce_odr hidden ptr @_ZNK4llvm5Value10user_beginEv(ptr noundef nonnull align 8 dereferenceable(24) %0) #1 comdat align 2 {
  %2 = alloca %"class.llvm::Value::user_iterator_impl", align 8
  %3 = alloca ptr, align 8
  store ptr %0, ptr %3, align 8
  %4 = load ptr, ptr %3, align 8
  call void @_ZNK4llvm5Value26assertModuleIsMaterializedEv(ptr noundef nonnull align 8 dereferenceable(24) %4)
  %5 = call ptr @_ZNK4llvm5Value23materialized_user_beginEv(ptr noundef nonnull align 8 dereferenceable(24) %4)
  %6 = getelementptr inbounds nuw %"class.llvm::Value::user_iterator_impl", ptr %2, i32 0, i32 0
  %7 = getelementptr inbounds nuw %"class.llvm::Value::use_iterator_impl.19", ptr %6, i32 0, i32 0
  store ptr %5, ptr %7, align 8
  %8 = getelementptr inbounds nuw %"class.llvm::Value::user_iterator_impl", ptr %2, i32 0, i32 0
  %9 = getelementptr inbounds nuw %"class.llvm::Value::use_iterator_impl.19", ptr %8, i32 0, i32 0
  %10 = load ptr, ptr %9, align 8
  ret ptr %10
}

; Function Attrs: mustprogress nounwind uwtable
define dso_local noundef zeroext i1 @_ZNK4llvm5Value25hasNUndroppableUsesOrMoreEj(ptr noundef nonnull align 8 dereferenceable(24) %0, i32 noundef %1) #1 align 2 {
  %3 = alloca ptr, align 8
  %4 = alloca i32, align 4
  %5 = alloca %"class.llvm::Value::user_iterator_impl", align 8
  %6 = alloca %"class.llvm::Value::user_iterator_impl", align 8
  store ptr %0, ptr %3, align 8
  store i32 %1, ptr %4, align 4
  %7 = load ptr, ptr %3, align 8
  %8 = call ptr @_ZNK4llvm5Value10user_beginEv(ptr noundef nonnull align 8 dereferenceable(24) %7)
  %9 = getelementptr inbounds nuw %"class.llvm::Value::user_iterator_impl", ptr %5, i32 0, i32 0
  %10 = getelementptr inbounds nuw %"class.llvm::Value::use_iterator_impl.19", ptr %9, i32 0, i32 0
  store ptr %8, ptr %10, align 8
  %11 = call ptr @_ZNK4llvm5Value8user_endEv(ptr noundef nonnull align 8 dereferenceable(24) %7)
  %12 = getelementptr inbounds nuw %"class.llvm::Value::user_iterator_impl", ptr %6, i32 0, i32 0
  %13 = getelementptr inbounds nuw %"class.llvm::Value::use_iterator_impl.19", ptr %12, i32 0, i32 0
  store ptr %11, ptr %13, align 8
  %14 = load i32, ptr %4, align 4
  %15 = call noundef zeroext i1 @_ZN4llvm15hasNItemsOrMoreINS_5Value18user_iterator_implIKNS_4UserEEERFbPS4_EEEbOT_SA_jOT0_PNSt9enable_ifIXntsr3std10is_base_ofISt26random_access_iterator_tagNSt15iterator_traitsINSt16remove_referenceIDtfL0p_EE4typeEE17iterator_categoryEEE5valueEvE4typeE(ptr noundef nonnull align 8 dereferenceable(8) %5, ptr noundef nonnull align 8 dereferenceable(8) %6, i32 noundef %14, ptr noundef nonnull @_ZL17isUnDroppableUserPKN4llvm4UserE, ptr noundef null)
  ret i1 %15
}