; Function Attrs: mustprogress nounwind uwtable
define dso_local noundef zeroext i1 @_ZNK4llvm5Value25hasNUndroppableUsesOrMoreEj(ptr nocapture noundef nonnull readonly align 8 dereferenceable(24) %0, i32 noundef %1) local_unnamed_addr #0 align 2 {
  %.not8.i = icmp eq i32 %1, 0
  br i1 %.not8.i, label %_ZN4llvm15hasNItemsOrMoreINS_5Value18user_iterator_implIKNS_4UserEEERFbPS4_EEEbOT_SA_jOT0_PNSt9enable_ifIXntsr3std10is_base_ofISt26random_access_iterator_tagNSt15iterator_traitsINSt16remove_referenceIDtfL0p_EE4typeEE17iterator_categoryEEE5valueEvE4typeE.exit, label %.lr.ph.i.preheader

.lr.ph.i.preheader:                               ; preds = %2
  %3 = getelementptr inbounds nuw i8, ptr %0, i64 16
  br label %.lr.ph.i

.lr.ph.i:                                         ; preds = %.lr.ph.i.preheader, %4
  %.sroa.01.0.in = phi ptr [ %10, %4 ], [ %3, %.lr.ph.i.preheader ]
  %.079.i = phi i32 [ %9, %4 ], [ %1, %.lr.ph.i.preheader ]
  %.sroa.01.0 = load ptr, ptr %.sroa.01.0.in, align 8
  %.not13.i.not.not = icmp ne ptr %.sroa.01.0, null
  br i1 %.not13.i.not.not, label %4, label %_ZN4llvm15hasNItemsOrMoreINS_5Value18user_iterator_implIKNS_4UserEEERFbPS4_EEEbOT_SA_jOT0_PNSt9enable_ifIXntsr3std10is_base_ofISt26random_access_iterator_tagNSt15iterator_traitsINSt16remove_referenceIDtfL0p_EE4typeEE17iterator_categoryEEE5valueEvE4typeE.exit

4:                                                ; preds = %.lr.ph.i
  %5 = getelementptr inbounds nuw i8, ptr %.sroa.01.0, i64 24
  %6 = load ptr, ptr %5, align 8
  %7 = tail call noundef zeroext i1 @_ZNK4llvm4User11isDroppableEv(ptr noundef nonnull align 8 dereferenceable(24) %6) #21
  %8 = xor i1 %7, true
  %.neg.i = sext i1 %8 to i32
  %9 = add i32 %.079.i, %.neg.i
  %10 = getelementptr inbounds nuw i8, ptr %.sroa.01.0, i64 8
  %.not.i = icmp eq i32 %9, 0
  br i1 %.not.i, label %_ZN4llvm15hasNItemsOrMoreINS_5Value18user_iterator_implIKNS_4UserEEERFbPS4_EEEbOT_SA_jOT0_PNSt9enable_ifIXntsr3std10is_base_ofISt26random_access_iterator_tagNSt15iterator_traitsINSt16remove_referenceIDtfL0p_EE4typeEE17iterator_categoryEEE5valueEvE4typeE.exit, label %.lr.ph.i, !llvm.loop !15

_ZN4llvm15hasNItemsOrMoreINS_5Value18user_iterator_implIKNS_4UserEEERFbPS4_EEEbOT_SA_jOT0_PNSt9enable_ifIXntsr3std10is_base_ofISt26random_access_iterator_tagNSt15iterator_traitsINSt16remove_referenceIDtfL0p_EE4typeEE17iterator_categoryEEE5valueEvE4typeE.exit: ; preds = %.lr.ph.i, %4, %2
  %.not.lcssa.i = phi i1 [ true, %2 ], [ %.not13.i.not.not, %4 ], [ %.not13.i.not.not, %.lr.ph.i ]
  ret i1 %.not.lcssa.i
}